(lp0
S'poi'
p1
aS'from_poi_ratio'
p2
aS'salary'
p3
aS'deferred_income'
p4
aS'expenses'
p5
aS'total_stock_value'
p6
aS'exercised_stock_options'
p7
aS'long_term_incentive'
p8
aS'director_fees'
p9
aS'bonus'
p10
a.